(lp0
(lp1
(lp2
I0
aI0
aI0
aI0
aI0
aI0
aI0
aI0
aa(lp3
I0
aI0
aI0
aI0
aI0
aI0
aI0
aI0
aa(lp4
I0
aI0
aI0
aI0
aI0
aI0
aI0
aI0
aa(lp5
I0
aI0
aI0
aI484
aI-484
aI0
aI0
aI0
aa(lp6
I0
aI0
aI0
aI-484
aI484
aI0
aI0
aI0
aa(lp7
I0
aI0
aI0
aI0
aI0
aI0
aI0
aI0
aa(lp8
I0
aI0
aI0
aI0
aI0
aI0
aI0
aI0
aa(lp9
I0
aI0
aI0
aI0
aI0
aI0
aI0
aI0
aaa(lp10
(lp11
I0
aI0
aI0
aI0
aI0
aI0
aI0
aI0
aa(lp12
I0
aI0
aI0
aI0
aI0
aI0
aI0
aI0
aa(lp13
I0
aI0
aI0
aI-124
aI0
aI0
aI0
aI0
aa(lp14
I0
aI0
aI-60
aI116
aI-484
aI0
aI0
aI0
aa(lp15
I0
aI0
aI0
aI-484
aI-116
aI-148
aI0
aI0
aa(lp16
I0
aI0
aI0
aI0
aI-152
aI0
aI0
aI0
aa(lp17
I0
aI0
aI0
aI0
aI0
aI0
aI0
aI0
aa(lp18
I0
aI0
aI0
aI0
aI0
aI0
aI0
aI0
aaa(lp19
(lp20
I0
aI0
aI0
aI0
aI0
aI0
aI0
aI0
aa(lp21
I0
aI0
aI0
aI0
aI0
aI0
aI0
aI0
aa(lp22
I0
aI0
aI108
aI-124
aI11
aI0
aI0
aI0
aa(lp23
I0
aI0
aI-60
aI332
aI-420
aI21
aI0
aI0
aa(lp24
I0
aI0
aI65
aI-104
aI192
aI-148
aI0
aI0
aa(lp25
I0
aI0
aI0
aI125
aI-152
aI154
aI0
aI0
aa(lp26
I0
aI0
aI0
aI0
aI0
aI0
aI0
aI0
aa(lp27
I0
aI0
aI0
aI0
aI0
aI0
aI0
aI0
aaa(lp28
(lp29
I0
aI0
aI0
aI0
aI0
aI0
aI0
aI0
aa(lp30
I0
aI0
aI5
aI0
aI0
aI23
aI0
aI0
aa(lp31
I0
aI21
aI141
aI-156
aI-11
aI-19
aI13
aI0
aa(lp32
I0
aI0
aI-158
aI34
aI-512
aI47
aI0
aI0
aa(lp33
I0
aI0
aI44
aI-398
aI-208
aI-218
aI0
aI0
aa(lp34
I0
aI3
aI-42
aI80
aI-274
aI130
aI-18
aI0
aa(lp35
I0
aI0
aI-21
aI0
aI0
aI10
aI0
aI0
aa(lp36
I0
aI0
aI0
aI0
aI0
aI0
aI0
aI0
aaa(lp37
(lp38
I0
aI0
aI0
aI0
aI0
aI0
aI0
aI0
aa(lp39
I0
aI9
aI16
aI-8
aI13
aI30
aI0
aI0
aa(lp40
I0
aI27
aI230
aI-58
aI76
aI12
aI21
aI0
aa(lp41
I0
aI-25
aI-108
aI96
aI-326
aI119
aI-5
aI0
aa(lp42
I0
aI-12
aI86
aI-286
aI-12
aI-98
aI1
aI0
aa(lp43
I0
aI40
aI-7
aI145
aI-118
aI215
aI-13
aI0
aa(lp44
I0
aI0
aI-13
aI-1
aI40
aI11
aI7
aI0
aa(lp45
I0
aI0
aI0
aI0
aI0
aI0
aI0
aI0
aaa(lp46
(lp47
I0
aI-6
aI0
aI-3
aI5
aI-2
aI0
aI0
aa(lp48
I-3
aI-53
aI5
aI-14
aI-25
aI28
aI6
aI0
aa(lp49
I0
aI15
aI89
aI-151
aI-3
aI-13
aI1
aI5
aa(lp50
I1
aI-23
aI-136
aI-110
aI-448
aI2
aI-28
aI4
aa(lp51
I1
aI-19
aI-6
aI-304
aI-178
aI-170
aI13
aI5
aa(lp52
I2
aI27
aI-17
aI70
aI-183
aI176
aI-5
aI0
aa(lp53
I0
aI-5
aI-35
aI7
aI10
aI18
aI-51
aI-4
aa(lp54
I0
aI0
aI1
aI-1
aI-4
aI0
aI-1
aI0
aaa(lp55
(lp56
I3
aI-9
aI9
aI-3
aI18
aI2
aI1
aI0
aa(lp57
I-4
aI-49
aI22
aI-28
aI4
aI41
aI-1
aI-14
aa(lp58
I2
aI25
aI95
aI-70
aI155
aI22
aI-24
aI6
aa(lp59
I0
aI-20
aI-57
aI50
aI-252
aI-23
aI-34
aI1
aa(lp60
I-10
aI1
aI141
aI-50
aI-56
aI-67
aI43
aI6
aa(lp61
I1
aI48
aI31
aI105
aI-92
aI229
aI23
aI1
aa(lp62
I-3
aI7
aI-25
aI27
aI42
aI18
aI-47
aI-5
aa(lp63
I0
aI1
aI-1
aI-1
aI-2
aI12
aI4
aI5
aaa(lp64
(lp65
I12
aI-10
aI10
aI-4
aI11
aI3
aI-4
aI4
aa(lp66
I-14
aI-54
aI-3
aI-55
aI24
aI4
aI3
aI-16
aa(lp67
I2
aI7
aI33
aI-87
aI100
aI-15
aI-15
aI7
aa(lp68
I-6
aI-63
aI-146
aI-76
aI-386
aI-139
aI-78
aI1
aa(lp69
I-22
aI-21
aI30
aI-168
aI-162
aI-132
aI7
aI-2
aa(lp70
I0
aI-5
aI5
aI12
aI-171
aI99
aI-16
aI-5
aa(lp71
I-6
aI2
aI-33
aI-22
aI51
aI15
aI-86
aI-10
aa(lp72
I-1
aI-2
aI-4
aI5
aI3
aI12
aI0
aI13
aaa(lp73
(lp74
I28
aI-12
aI13
aI3
aI9
aI-1
aI-13
aI6
aa(lp75
I-14
aI-41
aI27
aI8
aI8
aI-37
aI20
aI-20
aa(lp76
I5
aI37
aI62
aI63
aI101
aI42
aI-15
aI5
aa(lp77
I0
aI-64
aI-42
aI-8
aI-198
aI-53
aI-60
aI-13
aa(lp78
I-13
aI8
aI127
aI76
aI-8
aI21
aI14
aI-3
aa(lp79
I0
aI19
aI-31
aI97
aI-42
aI237
aI12
aI5
aa(lp80
I-15
aI-1
aI-29
aI4
aI47
aI29
aI-55
aI-15
aa(lp81
I1
aI-7
aI-7
aI18
aI7
aI6
aI-5
aI31
aaa(lp82
(lp83
I33
aI-27
aI9
aI9
aI4
aI1
aI-11
aI7
aa(lp84
I-33
aI-78
aI4
aI9
aI-36
aI-18
aI27
aI-24
aa(lp85
I7
aI15
aI36
aI-66
aI-4
aI3
aI13
aI9
aa(lp86
I-10
aI-74
aI-152
aI-130
aI-306
aI-53
aI-65
aI-12
aa(lp87
I6
aI-29
aI-21
aI-150
aI-70
aI31
aI27
aI-3
aa(lp88
I-4
aI-20
aI-52
aI-10
aI-189
aI98
aI-2
aI6
aa(lp89
I-24
aI-7
aI-68
aI-39
aI25
aI-48
aI-86
aI-20
aa(lp90
I7
aI-10
aI-17
aI11
aI-7
aI-10
aI-23
aI44
aaa(lp91
(lp92
I46
aI-33
aI7
aI-10
aI13
aI17
aI-18
aI8
aa(lp93
I-34
aI-74
aI27
aI32
aI-12
aI-4
aI9
aI-48
aa(lp94
I4
aI18
aI46
aI-42
aI95
aI50
aI6
aI11
aa(lp95
I3
aI-23
aI-43
aI64
aI-170
aI-1
aI-10
aI7
aa(lp96
I13
aI49
aI93
aI-38
aI18
aI95
aI47
aI1
aa(lp97
I0
aI24
aI-13
aI64
aI-28
aI142
aI-19
aI16
aa(lp98
I-23
aI-2
aI-45
aI-31
aI59
aI21
aI-53
aI-31
aa(lp99
I17
aI0
aI-19
aI22
aI0
aI-12
aI-26
aI74
aaa(lp100
(lp101
I68
aI-34
aI14
aI-4
aI-11
aI15
aI-20
aI9
aa(lp102
I-46
aI-68
aI-4
aI-17
aI-25
aI9
aI17
aI-54
aa(lp103
I3
aI45
aI65
aI-168
aI-44
aI52
aI6
aI14
aa(lp104
I10
aI-23
aI-39
aI-169
aI-367
aI-17
aI-19
aI4
aa(lp105
I11
aI39
aI-10
aI-117
aI-159
aI-13
aI28
aI-4
aa(lp106
I-1
aI-13
aI-127
aI66
aI-117
aI42
aI-56
aI13
aa(lp107
I-33
aI-26
aI-54
aI-31
aI18
aI20
aI-134
aI-54
aa(lp108
I23
aI-10
aI-10
aI36
aI-1
aI-10
aI-46
aI74
aaa(lp109
(lp110
I87
aI-36
aI7
aI3
aI-4
aI22
aI-29
aI16
aa(lp111
I-38
aI-47
aI-8
aI-4
aI0
aI72
aI11
aI-61
aa(lp112
I15
aI34
aI76
aI-117
aI31
aI162
aI49
aI29
aa(lp113
I11
aI69
aI55
aI97
aI-221
aI114
aI52
aI45
aa(lp114
I31
aI56
aI225
aI79
aI-63
aI86
aI76
aI5
aa(lp115
I2
aI34
aI-36
aI115
aI-49
aI52
aI-77
aI10
aa(lp116
I-35
aI-19
aI-32
aI-52
aI94
aI5
aI-92
aI-49
aa(lp117
I34
aI-10
aI11
aI28
aI5
aI0
aI-53
aI109
aaa(lp118
(lp119
I102
aI-35
aI6
aI-4
aI-12
aI16
aI-56
aI32
aa(lp120
I-33
aI-13
aI-58
aI-30
aI-56
aI10
aI4
aI-69
aa(lp121
I9
aI32
aI27
aI-198
aI-69
aI98
aI17
aI23
aa(lp122
I-22
aI21
aI-63
aI-36
aI-266
aI67
aI23
aI51
aa(lp123
I25
aI-27
aI155
aI-72
aI-98
aI-5
aI48
aI0
aa(lp124
I6
aI-15
aI-55
aI32
aI-162
aI15
aI-99
aI3
aa(lp125
I-47
aI-36
aI-58
aI-135
aI67
aI-22
aI-98
aI-55
aa(lp126
I41
aI-10
aI-5
aI21
aI-10
aI-12
aI-60
aI117
aaa(lp127
(lp128
I127
aI-40
aI12
aI11
aI-9
aI11
aI-67
aI43
aa(lp129
I-59
aI-2
aI-2
aI20
aI21
aI-16
aI18
aI-79
aa(lp130
I19
aI0
aI128
aI-110
aI-37
aI128
aI18
aI28
aa(lp131
I-26
aI33
aI40
aI68
aI-98
aI60
aI36
aI34
aa(lp132
I51
aI44
aI250
aI70
aI220
aI128
aI47
aI7
aa(lp133
I8
aI24
aI105
aI104
aI-40
aI175
aI-87
aI20
aa(lp134
I-70
aI-16
aI-37
aI-136
aI82
aI31
aI-47
aI-52
aa(lp135
I49
aI-24
aI3
aI4
aI-7
aI5
aI-56
aI156
aaa(lp136
(lp137
I143
aI-58
aI-4
aI-7
aI2
aI21
aI-74
aI51
aa(lp138
I-64
aI-17
aI5
aI17
aI2
aI-33
aI28
aI-92
aa(lp139
I4
aI-42
aI139
aI-150
aI-86
aI78
aI-35
aI30
aa(lp140
I-40
aI-57
aI-29
aI70
aI-28
aI-5
aI28
aI31
aa(lp141
I44
aI-37
aI120
aI-132
aI92
aI23
aI5
aI20
aa(lp142
I-5
aI-7
aI-64
aI-66
aI-120
aI180
aI-86
aI41
aa(lp143
I-96
aI-66
aI-64
aI-160
aI58
aI-5
aI-33
aI-70
aa(lp144
I61
aI-29
aI2
aI-14
aI-6
aI9
aI-91
aI176
aaa(lp145
(lp146
I170
aI-76
aI9
aI9
aI-16
aI23
aI-78
aI60
aa(lp147
I-56
aI-3
aI18
aI24
aI40
aI13
aI50
aI-107
aa(lp148
I26
aI34
aI218
aI-125
aI-15
aI138
aI-11
aI30
aa(lp149
I-41
aI-44
aI-85
aI181
aI101
aI81
aI70
aI48
aa(lp150
I60
aI-56
aI154
aI-15
aI239
aI236
aI38
aI35
aa(lp151
I-6
aI70
aI104
aI167
aI-12
aI259
aI-41
aI30
aa(lp152
I-76
aI-15
aI29
aI-103
aI114
aI27
aI33
aI-56
aa(lp153
I77
aI-12
aI20
aI6
aI-10
aI29
aI-82
aI216
aaa(lp154
(lp155
I188
aI-92
aI17
aI8
aI-13
aI19
aI-72
aI73
aa(lp156
I-59
aI-5
aI28
aI18
aI-1
aI21
aI52
aI-109
aa(lp157
I9
aI52
aI189
aI-272
aI-103
aI91
aI-26
aI25
aa(lp158
I-74
aI-146
aI-177
aI27
aI-63
aI-12
aI2
aI52
aa(lp159
I54
aI-129
aI-27
aI-99
aI171
aI75
aI-10
aI42
aa(lp160
I-10
aI0
aI63
aI80
aI-71
aI211
aI-88
aI19
aa(lp161
I-110
aI-48
aI-6
aI-165
aI68
aI-47
aI16
aI-68
aa(lp162
I83
aI-21
aI13
aI-25
aI-41
aI38
aI-108
aI243
aaa(lp163
(lp164
I228
aI-101
aI26
aI21
aI11
aI40
aI-74
aI88
aa(lp165
I-70
aI36
aI34
aI40
aI38
aI33
aI59
aI-108
aa(lp166
I11
aI33
aI258
aI-213
aI-1
aI114
aI-4
aI62
aa(lp167
I-74
aI-65
aI-52
aI139
aI93
aI44
aI51
aI76
aa(lp168
I56
aI-109
aI73
aI29
aI235
aI106
aI25
aI36
aa(lp169
I5
aI35
aI133
aI199
aI10
aI274
aI-68
aI22
aa(lp170
I-109
aI-6
aI64
aI-86
aI102
aI-10
aI48
aI-61
aa(lp171
I97
aI-39
aI19
aI-13
aI-40
aI37
aI-88
aI282
aaa(lp172
(lp173
I256
aI-135
aI27
aI22
aI11
aI37
aI-75
aI109
aa(lp174
I-90
aI28
aI-7
aI20
aI1
aI6
aI18
aI-99
aa(lp175
I-6
aI-73
aI284
aI-222
aI-120
aI7
aI-45
aI43
aa(lp176
I-66
aI-62
aI-71
aI67
aI-21
aI-25
aI4
aI92
aa(lp177
I72
aI-151
aI26
aI-123
aI149
aI-63
aI4
aI15
aa(lp178
I-4
aI-9
aI109
aI109
aI-124
aI221
aI-129
aI21
aa(lp179
I-123
aI-37
aI31
aI-162
aI87
aI-36
aI31
aI-76
aa(lp180
I101
aI-69
aI18
aI7
aI-30
aI41
aI-97
aI305
aaa(lp181
(lp182
I298
aI-131
aI35
aI13
aI42
aI39
aI-74
aI112
aa(lp183
I-91
aI129
aI1
aI36
aI41
aI54
aI15
aI-108
aa(lp184
I11
aI-42
aI370
aI-182
aI-44
aI26
aI-8
aI45
aa(lp185
I-43
aI1
aI-30
aI203
aI3
aI100
aI127
aI116
aa(lp186
I85
aI-67
aI63
aI-71
aI71
aI-15
aI80
aI16
aa(lp187
I16
aI61
aI164
aI180
aI-122
aI288
aI-119
aI37
aa(lp188
I-120
aI-9
aI105
aI-81
aI77
aI-6
aI69
aI-81
aa(lp189
I122
aI-76
aI38
aI8
aI-40
aI32
aI-90
aI343
aaa(lp190
(lp191
I324
aI-146
aI35
aI12
aI58
aI72
aI-86
aI125
aa(lp192
I-110
aI72
aI-99
aI15
aI57
aI42
aI14
aI-113
aa(lp193
I8
aI-49
aI286
aI-280
aI-123
aI7
aI-95
aI34
aa(lp194
I-54
aI-68
aI-90
aI61
aI-127
aI-16
aI109
aI112
aa(lp195
I66
aI-159
aI-12
aI-169
aI-43
aI-165
aI55
aI3
aa(lp196
I9
aI0
aI117
aI62
aI-193
aI269
aI-132
aI61
aa(lp197
I-136
aI-26
aI6
aI-163
aI23
aI-74
aI24
aI-89
aa(lp198
I141
aI-77
aI22
aI1
aI-41
aI35
aI-128
aI363
aaa(lp199
(lp200
I364
aI-143
aI35
aI42
aI76
aI68
aI-89
aI147
aa(lp201
I-106
aI67
aI-56
aI139
aI92
aI78
aI68
aI-104
aa(lp202
I49
aI-11
aI328
aI-146
aI-17
aI156
aI-1
aI58
aa(lp203
I-28
aI-1
aI73
aI141
aI-13
aI27
aI122
aI120
aa(lp204
I64
aI-72
aI114
aI-71
aI-21
aI-35
aI78
aI7
aa(lp205
I-12
aI-10
aI221
aI43
aI-88
aI322
aI-77
aI95
aa(lp206
I-144
aI11
aI19
aI-104
aI73
aI-52
aI43
aI-65
aa(lp207
I170
aI-74
aI32
aI8
aI-24
aI41
aI-113
aI403
aaa(lp208
(lp209
I396
aI-158
aI41
aI19
aI63
aI53
aI-91
aI186
aa(lp210
I-147
aI30
aI-41
aI68
aI37
aI48
aI73
aI-109
aa(lp211
I35
aI-85
aI227
aI-204
aI-91
aI139
aI10
aI53
aa(lp212
I-33
aI-79
aI-2
aI3
aI-85
aI-54
aI91
aI98
aa(lp213
I75
aI-30
aI56
aI-173
aI-155
aI-156
aI-28
aI-16
aa(lp214
I-26
aI-57
aI155
aI-12
aI-104
aI149
aI-148
aI52
aa(lp215
I-153
aI-15
aI-93
aI-166
aI97
aI-57
aI11
aI-81
aa(lp216
I195
aI-98
aI2
aI25
aI6
aI46
aI-135
aI439
aaa(lp217
(lp218
I432
aI-137
aI54
aI51
aI70
aI63
aI-74
aI238
aa(lp219
I-116
aI51
aI-71
aI87
aI77
aI21
aI119
aI-108
aa(lp220
I20
aI-10
aI248
aI-72
aI43
aI229
aI36
aI100
aa(lp221
I-15
aI-42
aI101
aI5
aI-15
aI-36
aI124
aI121
aa(lp222
I95
aI48
aI162
aI21
aI-31
aI-117
aI48
aI-3
aa(lp223
I19
aI42
aI207
aI25
aI21
aI209
aI-90
aI82
aa(lp224
I-130
aI49
aI-49
aI-130
aI141
aI45
aI62
aI-89
aa(lp225
I222
aI-79
aI38
aI58
aI10
aI54
aI-95
aI470
aaa(lp226
(lp227
I463
aI-143
aI44
aI55
aI55
aI76
aI-63
aI248
aa(lp228
I-150
aI34
aI-96
aI95
aI47
aI-17
aI67
aI-135
aa(lp229
I25
aI-135
aI122
aI-179
aI-83
aI54
aI-16
aI99
aa(lp230
I-10
aI-107
aI-68
aI-93
aI-121
aI-119
aI62
aI134
aa(lp231
I83
aI-20
aI11
aI-73
aI-37
aI-191
aI-13
aI-16
aa(lp232
I-1
aI-50
aI164
aI-132
aI-72
aI98
aI-160
aI80
aa(lp233
I-152
aI64
aI-84
aI-121
aI105
aI-9
aI39
aI-89
aa(lp234
I266
aI-93
aI15
aI54
aI16
aI59
aI-102
aI500
aaa(lp235
(lp236
I512
aI-130
aI73
aI76
aI101
aI85
aI-55
aI286
aa(lp237
I-151
aI50
aI-118
aI160
aI145
aI41
aI56
aI-139
aa(lp238
I23
aI-98
aI100
aI-4
aI152
aI135
aI8
aI95
aa(lp239
I8
aI-77
aI52
aI53
aI57
aI11
aI94
aI155
aa(lp240
I95
aI70
aI9
aI89
aI29
aI-138
aI49
aI-3
aa(lp241
I9
aI24
aI280
aI-154
aI-70
aI162
aI-115
aI119
aa(lp242
I-115
aI146
aI-30
aI-21
aI70
aI-7
aI63
aI-74
aa(lp243
I308
aI-99
aI21
aI62
aI16
aI49
aI-114
aI533
aaa(lp244
(lp245
I564
aI-143
aI89
aI56
aI95
aI80
aI-83
aI303
aa(lp246
I-130
aI64
aI-146
aI112
aI88
aI-25
aI-29
aI-152
aa(lp247
I38
aI-165
aI55
aI-31
aI47
aI89
aI-34
aI66
aa(lp248
I-19
aI-159
aI-115
aI-27
aI-93
aI-91
aI17
aI135
aa(lp249
I58
aI-34
aI-117
aI41
aI-3
aI-81
aI12
aI-20
aa(lp250
I-9
aI-74
aI187
aI-206
aI-254
aI132
aI-128
aI110
aa(lp251
I-132
aI115
aI-44
aI-21
aI56
aI-19
aI25
aI-68
aa(lp252
I343
aI-92
aI30
aI65
aI20
aI53
aI-128
aI568
aaa(lp253
(lp254
I611
aI-159
aI111
aI80
aI94
aI102
aI-98
aI341
aa(lp255
I-102
aI85
aI-99
aI120
aI180
aI-11
aI40
aI-131
aa(lp256
I44
aI-199
aI109
aI79
aI75
aI201
aI-15
aI80
aa(lp257
I-10
aI-122
aI-53
aI59
aI-37
aI32
aI41
aI166
aa(lp258
I79
aI-17
aI-28
aI191
aI183
aI61
aI118
aI-24
aa(lp259
I13
aI-28
aI337
aI-67
aI-181
aI303
aI-119
aI109
aa(lp260
I-129
aI163
aI-3
aI32
aI142
aI65
aI76
aI-77
aa(lp261
I379
aI-99
aI25
aI95
aI54
aI108
aI-88
aI622
aaa(lp262
(lp263
I654
aI-179
aI86
aI63
aI87
aI104
aI-83
aI372
aa(lp264
I-63
aI97
aI-146
aI17
aI126
aI-2
aI-1
aI-125
aa(lp265
I58
aI-174
aI30
aI-113
aI10
aI199
aI-85
aI74
aa(lp266
I-2
aI-163
aI-110
aI-41
aI-123
aI53
aI-42
aI179
aa(lp267
I81
aI-26
aI-121
aI-1
aI55
aI-80
aI11
aI-12
aa(lp268
I12
aI-19
aI314
aI-146
aI-355
aI224
aI-161
aI111
aa(lp269
I-146
aI156
aI-50
aI-23
aI101
aI-58
aI74
aI-58
aa(lp270
I412
aI-102
aI4
aI104
aI54
aI85
aI-104
aI657
aaa(lp271
(lp272
I713
aI-175
aI102
aI103
aI125
aI116
aI-61
aI434
aa(lp273
I-57
aI163
aI-74
aI123
aI129
aI-16
aI67
aI-99
aa(lp274
I79
aI-124
aI141
aI3
aI93
aI263
aI-36
aI108
aa(lp275
I44
aI-78
aI-37
aI75
aI-13
aI101
aI-77
aI196
aa(lp276
I105
aI100
aI-47
aI195
aI77
aI-17
aI97
aI20
aa(lp277
I46
aI21
aI422
aI-62
aI-185
aI318
aI-124
aI153
aa(lp278
I-138
aI252
aI53
aI118
aI138
aI-46
aI70
aI-39
aa(lp279
I456
aI-80
aI18
aI157
aI73
aI105
aI-120
aI688
aaa(lp280
(lp281
I771
aI-154
aI93
aI123
aI134
aI126
aI-49
aI473
aa(lp282
I-59
aI162
aI-166
aI33
aI93
aI-101
aI57
aI-94
aa(lp283
I82
aI-160
aI120
aI-66
aI-50
aI294
aI-76
aI106
aa(lp284
I38
aI-83
aI-136
aI13
aI-81
aI76
aI-68
aI216
aa(lp285
I84
aI22
aI-255
aI43
aI-111
aI-121
aI24
aI37
aa(lp286
I23
aI-104
aI372
aI-173
aI-277
aI265
aI-264
aI134
aa(lp287
I-171
aI165
aI-21
aI15
aI56
aI-147
aI84
aI-69
aa(lp288
I483
aI-100
aI20
aI185
aI80
aI108
aI-142
aI739
aaa(lp289
(lp290
I819
aI-113
aI96
aI145
aI165
aI185
aI-34
aI537
aa(lp291
I-25
aI275
aI-21
aI111
aI233
aI-24
aI144
aI-62
aa(lp292
I163
aI-83
aI299
aI94
aI2
aI401
aI-21
aI150
aa(lp293
I61
aI7
aI-96
aI105
aI49
aI148
aI16
aI236
aa(lp294
I116
aI-28
aI-227
aI29
aI-103
aI-110
aI78
aI69
aa(lp295
I38
aI-68
aI384
aI-139
aI-273
aI284
aI-273
aI153
aa(lp296
I-164
aI190
aI6
aI39
aI50
aI-140
aI96
aI-52
aa(lp297
I543
aI-61
aI53
aI242
aI119
aI126
aI-120
aI811
aaa(lp298
(lp299
I852
aI-119
aI94
aI154
aI140
aI172
aI-28
aI561
aa(lp300
I-29
aI166
aI-97
aI117
aI185
aI-109
aI78
aI-70
aa(lp301
I122
aI-125
aI308
aI-28
aI-72
aI326
aI-77
aI141
aa(lp302
I85
aI-6
aI-159
aI97
aI83
aI70
aI-111
aI217
aa(lp303
I154
aI-51
aI-154
aI99
aI-171
aI-231
aI-33
aI71
aa(lp304
I39
aI-92
aI402
aI-151
aI-327
aI236
aI-336
aI111
aa(lp305
I-136
aI166
aI-87
aI-19
aI-68
aI-206
aI76
aI-43
aa(lp306
I612
aI-53
aI60
aI241
aI83
aI87
aI-125
aI847
aaa(lp307
(lp308
I900
aI-100
aI138
aI174
aI145
aI184
aI2
aI600
aa(lp309
I28
aI171
aI-57
aI169
aI285
aI-34
aI110
aI-54
aa(lp310
I156
aI-74
aI395
aI48
aI37
aI414
aI-11
aI167
aa(lp311
I74
aI56
aI-78
aI193
aI237
aI120
aI-95
aI237
aa(lp312
I164
aI13
aI-104
aI225
aI-13
aI-107
aI2
aI110
aa(lp313
I79
aI-48
aI402
aI-30
aI-149
aI295
aI-270
aI119
aa(lp314
I-124
aI156
aI-109
aI47
aI79
aI-188
aI145
aI6
aa(lp315
I667
aI-58
aI32
aI234
aI74
aI75
aI-128
aI886
aaa(lp316
(lp317
I952
aI-60
aI174
aI189
aI159
aI174
aI-15
aI629
aa(lp318
I64
aI158
aI-42
aI90
aI263
aI-4
aI104
aI-35
aa(lp319
I161
aI-111
aI287
aI2
aI-42
aI367
aI-12
aI170
aa(lp320
I46
aI-75
aI-227
aI19
aI167
aI64
aI-116
aI227
aa(lp321
I158
aI-108
aI-228
aI81
aI-77
aI-167
aI-100
aI96
aa(lp322
I70
aI-174
aI338
aI-213
aI-214
aI252
aI-285
aI139
aa(lp323
I-148
aI119
aI-276
aI-69
aI-47
aI-205
aI94
aI13
aa(lp324
I711
aI-89
aI10
aI205
aI35
aI41
aI-101
aI933
aaa(lp325
(lp326
I1045
aI3
aI188
aI208
aI166
aI176
aI2
aI678
aa(lp327
I125
aI284
aI33
aI184
aI332
aI8
aI166
aI3
aa(lp328
I230
aI-35
aI400
aI10
aI-57
aI394
aI11
aI180
aa(lp329
I90
aI43
aI-243
aI7
aI139
aI136
aI-121
aI228
aa(lp330
I233
aI-54
aI-175
aI179
aI77
aI-54
aI-63
aI148
aa(lp331
I108
aI-186
aI381
aI-157
aI-125
aI432
aI-187
aI169
aa(lp332
I-120
aI132
aI-238
aI-4
aI33
aI-122
aI158
aI17
aa(lp333
I771
aI-51
aI35
aI221
aI59
aI60
aI-77
aI975
aaa(lp334
(lp335
I1103
aI7
aI224
aI186
aI154
aI175
aI-4
aI710
aa(lp336
I132
aI253
aI4
aI135
aI224
aI-150
aI127
aI-14
aa(lp337
I203
aI-178
aI299
aI-122
aI-145
aI218
aI-121
aI192
aa(lp338
I101
aI-60
aI-341
aI-85
aI73
aI10
aI-176
aI236
aa(lp339
I216
aI-13
aI-229
aI-9
aI55
aI-81
aI-66
aI157
aa(lp340
I118
aI-259
aI243
aI-200
aI-206
aI358
aI-256
aI174
aa(lp341
I-126
aI145
aI-282
aI-68
aI-43
aI-184
aI177
aI16
aa(lp342
I808
aI-19
aI35
aI233
aI47
aI67
aI-34
aI1045
aaa(lp343
(lp344
I1146
aI0
aI219
aI220
aI190
aI200
aI0
aI770
aa(lp345
I175
aI268
aI29
aI182
aI236
aI-144
aI212
aI27
aa(lp346
I251
aI-140
aI332
aI-51
aI-112
aI396
aI-18
aI227
aa(lp347
I159
aI-84
aI-245
aI41
aI235
aI31
aI-13
aI238
aa(lp348
I274
aI-40
aI-112
aI121
aI129
aI-6
aI-2
aI208
aa(lp349
I171
aI-203
aI336
aI-115
aI-136
aI465
aI-119
aI216
aa(lp350
I-75
aI140
aI-214
aI-41
aI40
aI-119
aI267
aI65
aa(lp351
I885
aI34
aI99
aI297
aI113
aI82
aI-3
aI1128
aaa(lp352
(lp353
I1182
aI26
aI239
aI227
aI214
aI223
aI-1
aI812
aa(lp354
I195
aI245
aI-60
aI63
aI115
aI-232
aI140
aI63
aa(lp355
I264
aI-171
aI297
aI-156
aI-183
aI290
aI-96
aI216
aa(lp356
I148
aI-150
aI-320
aI-23
aI27
aI-112
aI-130
aI249
aa(lp357
I282
aI-101
aI-212
aI127
aI75
aI-148
aI-41
aI245
aa(lp358
I183
aI-203
aI301
aI-154
aI-224
aI377
aI-196
aI249
aa(lp359
I-24
aI169
aI-218
aI-91
aI-86
aI-184
aI227
aI106
aa(lp360
I931
aI71
aI137
aI354
aI129
aI55
aI26
aI1181
aaa(lp361
(lp362
I1238
aI86
aI305
aI291
aI291
aI292
aI22
aI880
aa(lp363
I231
aI254
aI-40
aI132
aI72
aI-203
aI257
aI94
aa(lp364
I303
aI-144
aI442
aI-146
aI-130
aI348
aI-50
aI256
aa(lp365
I241
aI-46
aI-255
aI165
aI79
aI-23
aI-104
aI319
aa(lp366
I338
aI-21
aI-248
aI207
aI207
aI-90
aI61
aI304
aa(lp367
I241
aI-167
aI402
aI-93
aI-204
aI461
aI-158
aI346
aa(lp368
I27
aI244
aI-167
aI-16
aI-108
aI-129
aI343
aI178
aa(lp369
I990
aI136
aI205
aI401
aI171
aI57
aI33
aI1277
aaa(lp370
(lp371
I1297
aI89
aI302
aI273
aI277
aI306
aI68
aI917
aa(lp372
I251
aI189
aI-158
aI-11
aI-60
aI-270
aI211
aI115
aa(lp373
I341
aI-232
aI386
aI-200
aI-106
aI315
aI-145
aI245
aa(lp374
I244
aI-56
aI-354
aI83
aI5
aI-51
aI-149
aI324
aa(lp375
I338
aI-37
aI-317
aI79
aI161
aI-188
aI-53
aI341
aa(lp376
I295
aI-193
aI367
aI-229
aI-240
aI380
aI-204
aI377
aa(lp377
I100
aI283
aI-201
aI-131
aI-176
aI-164
aI261
aI203
aa(lp378
I1071
aI167
aI215
aI407
aI184
aI74
aI32
aI1310
aaa(lp379
(lp380
I1377
aI189
aI353
aI339
aI340
aI373
aI73
aI991
aa(lp381
I285
aI299
aI-169
aI-17
aI-38
aI-274
aI252
aI168
aa(lp382
I390
aI-167
aI537
aI-141
aI-63
aI358
aI-81
aI334
aa(lp383
I284
aI-11
aI-213
aI195
aI59
aI-2
aI-119
aI444
aa(lp384
I368
aI-55
aI-219
aI147
aI335
aI-108
aI33
aI422
aa(lp385
I317
aI-164
aI417
aI-101
aI-127
aI526
aI-61
aI431
aa(lp386
I136
aI317
aI-112
aI-42
aI-100
aI-103
aI345
aI307
aa(lp387
I1127
aI243
aI317
aI464
aI250
aI145
aI134
aI1419
aaa(lp388
(lp389
I1447
aI239
aI392
aI326
aI337
aI371
aI143
aI1059
aa(lp390
I317
aI269
aI-210
aI-26
aI-132
aI-307
aI221
aI239
aa(lp391
I396
aI-215
aI461
aI-235
aI-146
aI313
aI-148
aI359
aa(lp392
I308
aI-130
aI-331
aI131
aI15
aI-150
aI-261
aI422
aa(lp393
I387
aI-105
aI-362
aI83
aI269
aI-249
aI-79
aI433
aa(lp394
I345
aI-260
aI352
aI-225
aI-235
aI484
aI-151
aI493
aa(lp395
I174
aI258
aI-203
aI-92
aI-152
aI-202
aI304
aI347
aa(lp396
I1166
aI246
aI318
aI462
aI296
aI162
aI162
aI1471
aaa(lp397
(lp398
I1537
aI354
aI463
aI395
aI406
aI440
aI236
aI1134
aa(lp399
I388
aI348
aI-185
aI6
aI-124
aI-190
aI264
aI306
aa(lp400
I463
aI-128
aI536
aI-96
aI-146
aI312
aI-115
aI467
aa(lp401
I370
aI-116
aI-260
aI231
aI85
aI-111
aI-132
aI556
aa(lp402
I477
aI-43
aI-327
aI91
aI203
aI-194
aI67
aI560
aa(lp403
I455
aI-161
aI426
aI-203
aI-201
aI562
aI-62
aI618
aa(lp404
I254
aI321
aI-204
aI32
aI-118
aI-121
aI346
aI422
aa(lp405
I1220
aI296
aI390
aI495
aI341
aI280
aI285
aI1557
aaa(lp406
(lp407
I1601
aI378
aI483
aI415
aI429
aI473
aI284
aI1216
aa(lp408
I443
aI351
aI-269
aI28
aI-147
aI-291
aI235
aI342
aa(lp409
I483
aI-318
aI484
aI-204
aI-158
aI200
aI-191
aI484
aa(lp410
I426
aI-213
aI-358
aI229
aI51
aI-271
aI-210
aI607
aa(lp411
I527
aI-92
aI-440
aI113
aI209
aI-284
aI70
aI626
aa(lp412
I512
aI-273
aI285
aI-254
aI-190
aI506
aI-137
aI664
aa(lp413
I307
aI280
aI-267
aI-52
aI-242
aI-208
aI455
aI468
aa(lp414
I1269
aI304
aI377
aI438
aI312
aI296
aI343
aI1634
aaa(lp415
(lp416
I1677
aI471
aI558
aI523
aI565
aI526
aI364
aI1295
aa(lp417
I536
aI394
aI-220
aI44
aI-24
aI-286
aI369
aI449
aa(lp418
I572
aI-209
aI529
aI-182
aI-158
aI229
aI-109
aI566
aa(lp419
I509
aI-115
aI-325
aI275
aI189
aI-150
aI-95
aI686
aa(lp420
I593
aI-54
aI-346
aI209
aI319
aI-171
aI171
aI725
aa(lp421
I536
aI-249
aI332
aI-175
aI-127
aI613
aI-105
aI742
aa(lp422
I359
aI398
aI-259
aI-66
aI-108
aI-156
aI618
aI574
aa(lp423
I1356
aI350
aI432
aI502
aI421
aI409
aI422
aI1751
aaa(lp424
(lp425
I1736
aI549
aI583
aI537
aI576
aI566
aI402
aI1340
aa(lp426
I608
aI431
aI-291
aI-19
aI-25
aI-308
aI269
aI493
aa(lp427
I601
aI-171
aI530
aI-247
aI-284
aI151
aI-214
aI626
aa(lp428
I523
aI-183
aI-367
aI191
aI77
aI-228
aI-152
aI726
aa(lp429
I617
aI-167
aI-408
aI185
aI219
aI-218
aI50
aI731
aa(lp430
I534
aI-378
aI276
aI-242
aI-207
aI481
aI-195
aI758
aa(lp431
I379
aI364
aI-232
aI-87
aI-116
aI-191
aI555
aI570
aa(lp432
I1421
aI428
aI501
aI562
aI482
aI465
aI475
aI1809
aaa(lp433
(lp434
I1806
aI639
aI672
aI643
aI708
aI689
aI542
aI1451
aa(lp435
I732
aI516
aI-275
aI44
aI91
aI-241
aI428
aI590
aa(lp436
I708
aI-147
aI649
aI-153
aI-265
aI282
aI-200
aI737
aa(lp437
I611
aI-86
aI-281
aI227
aI181
aI-217
aI-98
aI839
aa(lp438
I726
aI-27
aI-359
aI281
aI249
aI-206
aI112
aI863
aa(lp439
I655
aI-238
aI459
aI-197
aI-130
aI564
aI-105
aI905
aa(lp440
I499
aI460
aI-210
aI-62
aI-28
aI-94
aI598
aI746
aa(lp441
I1520
aI545
aI607
aI650
aI594
aI583
aI582
aI1879
aaa(lp442
(lp443
I1862
aI709
aI731
aI720
aI776
aI726
aI573
aI1525
aa(lp444
I815
aI494
aI-311
aI-32
aI72
aI-283
aI428
aI632
aa(lp445
I746
aI-182
aI550
aI-300
aI-366
aI221
aI-281
aI785
aa(lp446
I682
aI-48
aI-324
aI177
aI165
aI-327
aI-154
aI924
aa(lp447
I795
aI-48
aI-388
aI219
aI255
aI-293
aI92
aI946
aa(lp448
I678
aI-290
aI389
aI-258
aI-210
aI510
aI-146
aI960
aa(lp449
I546
aI419
aI-361
aI-188
aI-165
aI-195
aI568
aI803
aa(lp450
I1569
aI565
aI640
aI650
aI595
aI674
aI688
aI1967
aaa(lp451
(lp452
I1956
aI852
aI848
aI853
aI929
aI942
aI782
aI1623
aa(lp453
I926
aI654
aI-171
aI85
aI146
aI-160
aI577
aI801
aa(lp454
I849
aI-90
aI660
aI-211
aI-223
aI302
aI-169
aI898
aa(lp455
I771
aI-13
aI-283
aI251
aI267
aI-247
aI-144
aI1032
aa(lp456
I899
aI-45
aI-289
aI311
aI365
aI-248
aI114
aI1069
aa(lp457
I819
aI-168
aI482
aI-139
aI-170
aI534
aI-118
aI1070
aa(lp458
I708
aI530
aI-221
aI-154
aI-94
aI-94
aI666
aI950
aa(lp459
I1679
aI728
aI776
aI752
aI718
aI785
aI832
aI2049
aaa(lp460
(lp461
I2014
aI930
aI911
aI917
aI1004
aI991
aI835
aI1703
aa(lp462
I1049
aI641
aI-215
aI46
aI19
aI-350
aI499
aI896
aa(lp463
I945
aI-171
aI596
aI-182
aI-262
aI224
aI-285
aI987
aa(lp464
I847
aI-30
aI-261
aI241
aI297
aI-311
aI-142
aI1096
aa(lp465
I982
aI-121
aI-210
aI323
aI387
aI-208
aI38
aI1167
aa(lp466
I903
aI-178
aI425
aI-220
aI-73
aI568
aI-190
aI1169
aa(lp467
I799
aI456
aI-209
aI-183
aI-68
aI-80
aI630
aI1027
aa(lp468
I1720
aI793
aI882
aI882
aI854
aI887
aI905
aI2114
aaa(lp469
(lp470
I2120
aI1100
aI1034
aI1041
aI1085
aI1074
aI974
aI1773
aa(lp471
I1207
aI803
aI-99
aI174
aI93
aI-195
aI676
aI1010
aa(lp472
I1112
aI-8
aI780
aI-38
aI-134
aI355
aI-151
aI1130
aa(lp473
I1037
aI62
aI-163
aI321
aI375
aI-159
aI-33
aI1216
aa(lp474
I1181
aI51
aI-59
aI537
aI435
aI-115
aI214
aI1337
aa(lp475
I1084
aI-45
aI532
aI-68
aI25
aI544
aI-67
aI1325
aa(lp476
I979
aI583
aI-112
aI-151
aI-18
aI14
aI737
aI1165
aa(lp477
I1821
aI865
aI929
aI969
aI1014
aI1037
aI1066
aI2209
aaa(lp478
(lp479
I2159
aI1192
aI1154
aI1113
aI1174
aI1176
aI1042
aI1827
aa(lp480
I1328
aI753
aI-145
aI52
aI5
aI-240
aI664
aI1098
aa(lp481
I1241
aI-74
aI677
aI-63
aI-175
aI297
aI-68
aI1252
aa(lp482
I1122
aI5
aI-235
aI319
aI335
aI-227
aI-7
aI1368
aa(lp483
I1281
aI-51
aI-138
aI553
aI435
aI-108
aI207
aI1449
aa(lp484
I1187
aI-235
aI541
aI-88
aI64
aI517
aI-95
aI1416
aa(lp485
I1080
aI585
aI-194
aI-206
aI-90
aI-23
aI717
aI1267
aa(lp486
I1900
aI968
aI1061
aI1086
aI1158
aI1188
aI1128
aI2272
aaa(lp487
(lp488
I2278
aI1409
aI1350
aI1313
aI1369
aI1387
aI1189
aI1927
aa(lp489
I1478
aI916
aI-31
aI166
aI98
aI-140
aI837
aI1264
aa(lp490
I1419
aI-1
aI846
aI53
aI-125
aI432
aI-17
aI1412
aa(lp491
I1325
aI134
aI-97
aI439
aI445
aI-214
aI67
aI1521
aa(lp492
I1486
aI98
aI-68
aI767
aI525
aI-62
aI254
aI1645
aa(lp493
I1386
aI-30
aI780
aI43
aI160
aI668
aI6
aI1573
aa(lp494
I1303
aI853
aI20
aI106
aI81
aI124
aI905
aI1436
aa(lp495
I2031
aI1098
aI1211
aI1274
aI1299
aI1367
aI1313
aI2363
aaa(lp496
(lp497
I2338
aI1550
aI1491
aI1452
aI1526
aI1542
aI1328
aI1992
aa(lp498
I1637
aI912
aI-80
aI84
aI28
aI-101
aI791
aI1381
aa(lp499
I1579
aI-5
aI814
aI35
aI-90
aI497
aI-94
aI1493
aa(lp500
I1509
aI169
aI-123
aI463
aI513
aI-180
aI38
aI1611
aa(lp501
I1628
aI112
aI-68
aI817
aI519
aI-58
aI216
aI1786
aa(lp502
I1524
aI-45
aI748
aI-7
aI144
aI588
aI-34
aI1681
aa(lp503
I1412
aI790
aI-14
aI59
aI18
aI104
aI927
aI1586
aa(lp504
I2089
aI1250
aI1320
aI1396
aI1444
aI1565
aI1492
aI2452
aaa(lp505
(lp506
I2411
aI1773
aI1759
aI1707
aI1734
aI1801
aI1550
aI2103
aa(lp507
I1836
aI1141
aI163
aI303
aI265
aI209
aI1106
aI1676
aa(lp508
I1799
aI137
aI926
aI164
aI24
aI758
aI129
aI1765
aa(lp509
I1760
aI258
aI41
aI525
aI655
aI17
aI176
aI1856
aa(lp510
I1888
aI259
aI44
aI917
aI641
aI35
aI292
aI2046
aa(lp511
I1723
aI126
aI830
aI40
aI285
aI596
aI66
aI1906
aa(lp512
I1649
aI1002
aI182
aI217
aI194
aI215
aI1156
aI1835
aa(lp513
I2184
aI1468
aI1545
aI1611
aI1682
aI1810
aI1735
aI2583
aaa(lp514
(lp515
I2463
aI1948
aI1976
aI1902
aI1890
aI1964
aI1686
aI2154
aa(lp516
I1988
aI1206
aI192
aI301
aI303
aI184
aI1079
aI1852
aa(lp517
I2005
aI170
aI933
aI153
aI42
aI779
aI261
aI1954
aa(lp518
I1973
aI251
aI144
aI583
aI659
aI113
aI251
aI2101
aa(lp519
I2094
aI314
aI80
aI925
aI727
aI33
aI323
aI2175
aa(lp520
I1961
aI150
aI894
aI54
aI290
aI667
aI71
aI2030
aa(lp521
I1851
aI990
aI162
aI249
aI169
aI213
aI1151
aI1981
aa(lp522
I2234
aI1637
aI1711
aI1789
aI1863
aI2001
aI1930
aI2659
aaa(lp523
(lp524
I2540
aI2163
aI2268
aI2193
aI2199
aI2241
aI1987
aI2287
aa(lp525
I2225
aI1586
aI457
aI507
aI581
aI502
aI1408
aI2130
aa(lp526
I2251
aI351
aI1198
aI351
aI283
aI1108
aI473
aI2274
aa(lp527
I2258
aI522
aI353
aI773
aI847
aI356
aI545
aI2453
aa(lp528
I2315
aI575
aI302
aI1073
aI959
aI314
aI548
aI2527
aa(lp529
I2241
aI414
aI1066
aI173
aI484
aI895
aI302
aI2366
aa(lp530
I2111
aI1191
aI297
aI374
aI335
aI368
aI1366
aI2274
aa(lp531
I2349
aI1895
aI2032
aI2175
aI2214
aI2268
aI2177
aI2755
aaa(lp532
(lp533
I2560
aI2362
aI2479
aI2454
aI2418
aI2454
aI2201
aI2316
aa(lp534
I2425
aI1603
aI541
aI613
aI670
aI660
aI1459
aI2321
aa(lp535
I2452
aI423
aI1215
aI407
aI434
aI1177
aI640
aI2531
aa(lp536
I2519
aI646
aI483
aI909
aI985
aI463
aI595
aI2727
aa(lp537
I2600
aI684
aI562
aI1233
aI971
aI399
aI628
aI2824
aa(lp538
I2499
aI602
aI1132
aI267
aI609
aI1040
aI470
aI2686
aa(lp539
I2355
aI1417
aI455
aI522
aI466
aI595
aI1550
aI2621
aa(lp540
I2394
aI2119
aI2293
aI2428
aI2445
aI2505
aI2386
aI2817
aaa(lp541
(lp542
I916
aI820
aI813
aI832
aI798
aI852
aI831
aI977
aa(lp543
I894
aI576
aI154
aI200
aI170
aI190
aI623
aI884
aa(lp544
I868
aI204
aI628
aI305
aI238
aI671
aI240
aI936
aa(lp545
I900
aI287
aI335
aI606
aI550
aI258
aI209
aI984
aa(lp546
I858
aI221
aI293
aI710
aI652
aI294
aI144
aI1023
aa(lp547
I850
aI100
aI651
aI306
aI291
aI600
aI149
aI998
aa(lp548
I845
aI498
aI61
aI138
aI184
aI143
aI650
aI1030
aa(lp549
I1028
aI787
aI835
aI868
aI888
aI922
aI879
aI1167
aaa(lp550
(lp551
I266
aI244
aI277
aI251
aI218
aI286
aI262
aI363
aa(lp552
I283
aI212
aI96
aI63
aI53
aI63
aI243
aI303
aa(lp553
I251
aI82
aI199
aI113
aI138
aI288
aI91
aI335
aa(lp554
I241
aI107
aI168
aI156
aI204
aI110
aI77
aI321
aa(lp555
I228
aI87
aI125
aI238
aI214
aI190
aI99
aI323
aa(lp556
I229
aI72
aI260
aI112
aI124
aI227
aI112
aI341
aa(lp557
I237
aI188
aI76
aI85
aI115
aI82
aI238
aI314
aa(lp558
I283
aI226
aI244
aI243
aI252
aI274
aI253
aI346
aaa(lp559
(lp560
I85
aI93
aI81
aI74
aI65
aI78
aI63
aI90
aa(lp561
I79
aI75
aI34
aI5
aI16
aI12
aI75
aI80
aa(lp562
I85
aI18
aI68
aI62
aI16
aI94
aI23
aI90
aa(lp563
I81
aI35
aI27
aI49
aI77
aI19
aI18
aI80
aa(lp564
I65
aI38
aI31
aI59
aI75
aI67
aI4
aI80
aa(lp565
I71
aI22
aI87
aI51
aI39
aI68
aI33
aI88
aa(lp566
I75
aI57
aI28
aI33
aI41
aI40
aI75
aI77
aa(lp567
I88
aI76
aI83
aI79
aI73
aI70
aI65
aI88
aaa(lp568
(lp569
I18
aI25
aI23
aI19
aI17
aI18
aI11
aI26
aa(lp570
I21
aI19
aI12
aI5
aI5
aI-1
aI17
aI23
aa(lp571
I22
aI12
aI7
aI11
aI12
aI23
aI12
aI21
aa(lp572
I21
aI15
aI3
aI7
aI19
aI7
aI2
aI15
aa(lp573
I17
aI11
aI7
aI13
aI23
aI17
aI-2
aI15
aa(lp574
I21
aI13
aI23
aI23
aI1
aI15
aI7
aI15
aa(lp575
I20
aI17
aI13
aI7
aI17
aI3
aI15
aI13
aa(lp576
I21
aI26
aI28
aI27
aI23
aI23
aI17
aI16
aaa(lp577
(lp578
I4
aI4
aI4
aI4
aI4
aI5
aI4
aI7
aa(lp579
I4
aI2
aI6
aI4
aI4
aI0
aI8
aI8
aa(lp580
I6
aI2
aI6
aI6
aI2
aI8
aI6
aI6
aa(lp581
I6
aI6
aI4
aI4
aI6
aI6
aI0
aI6
aa(lp582
I4
aI4
aI8
aI6
aI8
aI2
aI2
aI6
aa(lp583
I4
aI4
aI6
aI4
aI-4
aI4
aI2
aI6
aa(lp584
I3
aI2
aI4
aI-2
aI0
aI-4
aI6
aI6
aa(lp585
I4
aI5
aI6
aI6
aI6
aI6
aI6
aI6
aaa.